target datalayout = "e-m:e-p270:32:32-p271:32:32-p272:64:64-i64:64-i128:128-f80:128-n8:16:32:64-S128"
target triple = "x86_64-pc-linux-gnu"

%"struct.ZXing::PointT" = type { i32, i32 }
%"struct.ZXing::OneD::(anonymous namespace)::Clock" = type { i8, i32, i32, i32 }
%"struct.ZXing::PointT.23" = type { double, double }

; Function Attrs: mustprogress nounwind uwtable
define internal noundef zeroext i1 @_ZN5ZXing4OneD12_GLOBAL__N_120DistIsBelowThresholdENS_6PointTIiEES3_S3_(i64 %0, i64 %1, i64 %2) #1 {
  %4 = alloca %"struct.ZXing::PointT", align 4
  %5 = alloca %"struct.ZXing::PointT", align 4
  %6 = alloca %"struct.ZXing::PointT", align 4
  store i64 %0, ptr %4, align 4
  store i64 %1, ptr %5, align 4
  store i64 %2, ptr %6, align 4
  %7 = getelementptr inbounds nuw %"struct.ZXing::PointT", ptr %4, i32 0, i32 0
  %8 = load i32, ptr %7, align 4, !tbaa !158
  %9 = getelementptr inbounds nuw %"struct.ZXing::PointT", ptr %5, i32 0, i32 0
  %10 = load i32, ptr %9, align 4, !tbaa !158
  %11 = sub nsw i32 %8, %10
  %12 = call i32 @llvm.abs.i32(i32 %11, i1 true)
  %13 = getelementptr inbounds nuw %"struct.ZXing::PointT", ptr %6, i32 0, i32 0
  %14 = load i32, ptr %13, align 4, !tbaa !158
  %15 = icmp slt i32 %12, %14
  br i1 %15, label %16, label %26

16:                                               ; preds = %3
  %17 = getelementptr inbounds nuw %"struct.ZXing::PointT", ptr %4, i32 0, i32 1
  %18 = load i32, ptr %17, align 4, !tbaa !160
  %19 = getelementptr inbounds nuw %"struct.ZXing::PointT", ptr %5, i32 0, i32 1
  %20 = load i32, ptr %19, align 4, !tbaa !160
  %21 = sub nsw i32 %18, %20
  %22 = call i32 @llvm.abs.i32(i32 %21, i1 true)
  %23 = getelementptr inbounds nuw %"struct.ZXing::PointT", ptr %6, i32 0, i32 1
  %24 = load i32, ptr %23, align 4, !tbaa !160
  %25 = icmp slt i32 %22, %24
  br label %26

26:                                               ; preds = %16, %3
  %27 = phi i1 [ false, %3 ], [ %25, %16 ]
  ret i1 %27
}

; Function Attrs: mustprogress nounwind uwtable
define linkonce_odr void @_ZN5ZXing6PointTIiEC2IdEERKNS0_IT_EE(ptr noundef nonnull align 4 dereferenceable(8) %0, ptr noundef nonnull align 8 dereferenceable(16) %1) unnamed_addr #1 comdat align 2 {
  %3 = alloca ptr, align 8
  %4 = alloca ptr, align 8
  store ptr %0, ptr %3, align 8, !tbaa !156
  store ptr %1, ptr %4, align 8, !tbaa !229
  %5 = load ptr, ptr %3, align 8
  %6 = getelementptr inbounds nuw %"struct.ZXing::PointT", ptr %5, i32 0, i32 0
  %7 = load ptr, ptr %4, align 8, !tbaa !229
  %8 = getelementptr inbounds nuw %"struct.ZXing::PointT.23", ptr %7, i32 0, i32 0
  %9 = load double, ptr %8, align 8, !tbaa !231
  %10 = fptosi double %9 to i32
  store i32 %10, ptr %6, align 4, !tbaa !158
  %11 = getelementptr inbounds nuw %"struct.ZXing::PointT", ptr %5, i32 0, i32 1
  %12 = load ptr, ptr %4, align 8, !tbaa !229
  %13 = getelementptr inbounds nuw %"struct.ZXing::PointT.23", ptr %12, i32 0, i32 1
  %14 = load double, ptr %13, align 8, !tbaa !233
  %15 = fptosi double %14 to i32
  store i32 %15, ptr %11, align 4, !tbaa !160
  ret void
}

; Function Attrs: mustprogress uwtable
define linkonce_odr { double, double } @_ZN5ZXingmlIdfEENS_6PointTIT_EET0_RKS3_(float noundef %0, ptr noundef nonnull align 8 dereferenceable(16) %1) #0 comdat {
  %3 = alloca %"struct.ZXing::PointT.23", align 8
  %4 = alloca float, align 4
  %5 = alloca ptr, align 8
  store float %0, ptr %4, align 4, !tbaa !30
  store ptr %1, ptr %5, align 8, !tbaa !229
  %6 = load float, ptr %4, align 4, !tbaa !30
  %7 = fpext float %6 to double
  %8 = load ptr, ptr %5, align 8, !tbaa !229
  %9 = getelementptr inbounds nuw %"struct.ZXing::PointT.23", ptr %8, i32 0, i32 0
  %10 = load double, ptr %9, align 8, !tbaa !231
  %11 = fmul double %7, %10
  %12 = load float, ptr %4, align 4, !tbaa !30
  %13 = fpext float %12 to double
  %14 = load ptr, ptr %5, align 8, !tbaa !229
  %15 = getelementptr inbounds nuw %"struct.ZXing::PointT.23", ptr %14, i32 0, i32 1
  %16 = load double, ptr %15, align 8, !tbaa !233
  %17 = fmul double %13, %16
  call void @_ZN5ZXing6PointTIdEC2Edd(ptr noundef nonnull align 8 dereferenceable(16) %3, double noundef %11, double noundef %17)
  %18 = load { double, double }, ptr %3, align 8
  ret { double, double } %18
}

; Function Attrs: mustprogress nounwind uwtable
define linkonce_odr void @_ZN5ZXing6PointTIdEC2Edd(ptr noundef nonnull align 8 dereferenceable(16) %0, double noundef %1, double noundef %2) unnamed_addr #1 comdat align 2 {
  %4 = alloca ptr, align 8
  %5 = alloca double, align 8
  %6 = alloca double, align 8
  store ptr %0, ptr %4, align 8, !tbaa !229
  store double %1, ptr %5, align 8, !tbaa !112
  store double %2, ptr %6, align 8, !tbaa !112
  %7 = load ptr, ptr %4, align 8
  %8 = getelementptr inbounds nuw %"struct.ZXing::PointT.23", ptr %7, i32 0, i32 0
  %9 = load double, ptr %5, align 8, !tbaa !112
  store double %9, ptr %8, align 8, !tbaa !231
  %10 = getelementptr inbounds nuw %"struct.ZXing::PointT.23", ptr %7, i32 0, i32 1
  %11 = load double, ptr %6, align 8, !tbaa !112
  store double %11, ptr %10, align 8, !tbaa !233
  ret void
}

; Function Attrs: mustprogress nounwind uwtable
define internal noundef float @_ZNK5ZXing4OneD12_GLOBAL__N_15Clock10moduleSizeEv(ptr noundef nonnull align 4 dereferenceable(16) %0) #1 align 2 {
  %2 = alloca ptr, align 8
  store ptr %0, ptr %2, align 8, !tbaa !32
  %3 = load ptr, ptr %2, align 8
  %4 = getelementptr inbounds nuw %"struct.ZXing::OneD::(anonymous namespace)::Clock", ptr %3, i32 0, i32 3
  %5 = load i32, ptr %4, align 4, !tbaa !42
  %6 = getelementptr inbounds nuw %"struct.ZXing::OneD::(anonymous namespace)::Clock", ptr %3, i32 0, i32 2
  %7 = load i32, ptr %6, align 4, !tbaa !41
  %8 = sub nsw i32 %5, %7
  %9 = sitofp i32 %8 to float
  %10 = getelementptr inbounds nuw %"struct.ZXing::OneD::(anonymous namespace)::Clock", ptr %3, i32 0, i32 0
  %11 = load i8, ptr %10, align 4, !tbaa !35, !range !38, !noundef !39
  %12 = trunc i8 %11 to i1
  %13 = select i1 %12, i32 31, i32 23
  %14 = sitofp i32 %13 to float
  %15 = fdiv float %9, %14
  ret float %15
}

; Function Attrs: mustprogress uwtable
define internal noundef zeroext i1 @_ZNK5ZXing4OneD12_GLOBAL__N_15Clock9isCloseToENS_6PointTIiEEi(ptr noundef nonnull align 4 dereferenceable(16) %0, i64 %1, i32 noundef %2) #0 align 2 {
  %4 = alloca %"struct.ZXing::PointT", align 4
  %5 = alloca ptr, align 8
  %6 = alloca i32, align 4
  %7 = alloca %"struct.ZXing::PointT", align 4
  %8 = alloca %"struct.ZXing::PointT", align 4
  %9 = alloca %"struct.ZXing::PointT", align 4
  %10 = alloca %"struct.ZXing::PointT.23", align 8
  %11 = alloca %"struct.ZXing::PointT.23", align 8
  store i64 %1, ptr %4, align 4
  store ptr %0, ptr %5, align 8, !tbaa !32
  store i32 %2, ptr %6, align 4, !tbaa !8
  %12 = load ptr, ptr %5, align 8
  call void @llvm.memcpy.p0.p0.i64(ptr align 4 %7, ptr align 4 %4, i64 8, i1 false), !tbaa.struct !221
  %13 = load i32, ptr %6, align 4, !tbaa !8
  %14 = getelementptr inbounds nuw %"struct.ZXing::OneD::(anonymous namespace)::Clock", ptr %12, i32 0, i32 1
  %15 = load i32, ptr %14, align 4, !tbaa !91
  call void @_ZN5ZXing6PointTIiEC2Eii(ptr noundef nonnull align 4 dereferenceable(8) %8, i32 noundef %13, i32 noundef %15)
  call void @llvm.lifetime.start.p0(i64 16, ptr %10) #17
  %16 = call noundef float @_ZNK5ZXing4OneD12_GLOBAL__N_15Clock10moduleSizeEv(ptr noundef nonnull align 4 dereferenceable(16) %12)
  call void @llvm.lifetime.start.p0(i64 16, ptr %11) #17
  call void @_ZN5ZXing6PointTIdEC2Edd(ptr noundef nonnull align 8 dereferenceable(16) %11, double noundef 5.000000e-01, double noundef 4.000000e+00)
  %17 = call { double, double } @_ZN5ZXingmlIdfEENS_6PointTIT_EET0_RKS3_(float noundef %16, ptr noundef nonnull align 8 dereferenceable(16) %11)
  %18 = getelementptr inbounds nuw { double, double }, ptr %10, i32 0, i32 0
  %19 = extractvalue { double, double } %17, 0
  store double %19, ptr %18, align 8
  %20 = getelementptr inbounds nuw { double, double }, ptr %10, i32 0, i32 1
  %21 = extractvalue { double, double } %17, 1
  store double %21, ptr %20, align 8
  call void @_ZN5ZXing6PointTIiEC2IdEERKNS0_IT_EE(ptr noundef nonnull align 4 dereferenceable(8) %9, ptr noundef nonnull align 8 dereferenceable(16) %10)
  %22 = load i64, ptr %7, align 4
  %23 = load i64, ptr %8, align 4
  %24 = load i64, ptr %9, align 4
  %25 = call noundef zeroext i1 @_ZN5ZXing4OneD12_GLOBAL__N_120DistIsBelowThresholdENS_6PointTIiEES3_S3_(i64 %22, i64 %23, i64 %24)
  call void @llvm.lifetime.end.p0(i64 16, ptr %11) #17
  call void @llvm.lifetime.end.p0(i64 16, ptr %10) #17
  ret i1 %25
}

; Function Attrs: mustprogress nounwind uwtable
define linkonce_odr void @_ZN5ZXing6PointTIiEC2Eii(ptr noundef nonnull align 4 dereferenceable(8) %0, i32 noundef %1, i32 noundef %2) unnamed_addr #1 comdat align 2 {
  %4 = alloca ptr, align 8
  %5 = alloca i32, align 4
  %6 = alloca i32, align 4
  store ptr %0, ptr %4, align 8, !tbaa !156
  store i32 %1, ptr %5, align 4, !tbaa !8
  store i32 %2, ptr %6, align 4, !tbaa !8
  %7 = load ptr, ptr %4, align 8
  %8 = getelementptr inbounds nuw %"struct.ZXing::PointT", ptr %7, i32 0, i32 0
  %9 = load i32, ptr %5, align 4, !tbaa !8
  store i32 %9, ptr %8, align 4, !tbaa !158
  %10 = getelementptr inbounds nuw %"struct.ZXing::PointT", ptr %7, i32 0, i32 1
  %11 = load i32, ptr %6, align 4, !tbaa !8
  store i32 %11, ptr %10, align 4, !tbaa !160
  ret void
}

; Function Attrs: mustprogress uwtable
define internal noundef zeroext i1 @_ZNK5ZXing4OneD12_GLOBAL__N_15Clock13isCloseToStopEii(ptr noundef nonnull align 4 dereferenceable(16) %0, i32 noundef %1, i32 noundef %2) #0 align 2 {
  %4 = alloca ptr, align 8
  %5 = alloca i32, align 4
  %6 = alloca i32, align 4
  %7 = alloca %"struct.ZXing::PointT", align 4
  store ptr %0, ptr %4, align 8, !tbaa !32
  store i32 %1, ptr %5, align 4, !tbaa !8
  store i32 %2, ptr %6, align 4, !tbaa !8
  %8 = load ptr, ptr %4, align 8
  %9 = load i32, ptr %5, align 4, !tbaa !8
  %10 = load i32, ptr %6, align 4, !tbaa !8
  call void @_ZN5ZXing6PointTIiEC2Eii(ptr noundef nonnull align 4 dereferenceable(8) %7, i32 noundef %9, i32 noundef %10)
  %11 = getelementptr inbounds nuw %"struct.ZXing::OneD::(anonymous namespace)::Clock", ptr %8, i32 0, i32 3
  %12 = load i32, ptr %11, align 4, !tbaa !42
  %13 = load i64, ptr %7, align 4
  %14 = call noundef zeroext i1 @_ZNK5ZXing4OneD12_GLOBAL__N_15Clock9isCloseToENS_6PointTIiEEi(ptr noundef nonnull align 4 dereferenceable(16) %8, i64 %13, i32 noundef %12)
  ret i1 %14
}