; Function Attrs: mustprogress nofree norecurse nosync nounwind willreturn memory(argmem: read) uwtable
define internal fastcc noundef zeroext i1 @_ZNK5ZXing4OneD12_GLOBAL__N_15Clock13isCloseToStopEii(ptr noundef nonnull readonly align 4 captures(none) dereferenceable(16) %0, i32 noundef %1, i32 noundef %2) unnamed_addr #5 align 2 {
  %4 = getelementptr inbounds nuw i8, ptr %0, i64 12
  %5 = load i32, ptr %4, align 4, !tbaa !89
  %6 = getelementptr inbounds nuw i8, ptr %0, i64 8
  %7 = load i32, ptr %6, align 4, !tbaa !90
  %8 = sub nsw i32 %5, %7
  %9 = sitofp i32 %8 to float
  %10 = load i8, ptr %0, align 4, !tbaa !84, !range !86, !noundef !87
  %11 = trunc nuw i8 %10 to i1
  %12 = select i1 %11, float 3.100000e+01, float 2.300000e+01
  %13 = fdiv float %9, %12
  %14 = fpext float %13 to double
  %15 = fmul double %14, 5.000000e-01
  %16 = fptosi double %15 to i32
  %17 = sub nsw i32 %1, %5
  %18 = tail call i32 @llvm.abs.i32(i32 %17, i1 true)
  %19 = icmp slt i32 %18, %16
  br i1 %19, label %20, label %_ZNK5ZXing4OneD12_GLOBAL__N_15Clock9isCloseToENS_6PointTIiEEi.exit

20:                                               ; preds = %3
  %21 = fmul double %14, 4.000000e+00
  %22 = fptosi double %21 to i32
  %23 = getelementptr inbounds nuw i8, ptr %0, i64 4
  %24 = load i32, ptr %23, align 4, !tbaa !95
  %25 = sub nsw i32 %2, %24
  %26 = tail call i32 @llvm.abs.i32(i32 %25, i1 true)
  %27 = icmp slt i32 %26, %22
  br label %_ZNK5ZXing4OneD12_GLOBAL__N_15Clock9isCloseToENS_6PointTIiEEi.exit

_ZNK5ZXing4OneD12_GLOBAL__N_15Clock9isCloseToENS_6PointTIiEEi.exit: ; preds = %3, %20
  %28 = phi i1 [ false, %3 ], [ %27, %20 ]
  ret i1 %28
}